; Function Attrs: mustprogress uwtable
define hidden void @mbedtls_camellia_free(ptr noundef %0) local_unnamed_addr #2 {
  %2 = icmp eq ptr %0, null
  br i1 %2, label %4, label %3

3:                                                ; preds = %1
  tail call void @mbedtls_platform_zeroize(ptr noundef nonnull %0, i64 noundef 276)
  br label %4

4:                                                ; preds = %1, %3
  ret void
}